target datalayout = "e-m:e-p270:32:32-p271:32:32-p272:64:64-i64:64-i128:128-f80:128-n8:16:32:64-S128"
target triple = "x86_64-pc-linux-gnu"

%"struct.duckdb_lz4::LZ4_stream_t_internal" = type { [4096 x i32], ptr, ptr, i32, i32, i32 }

; Function Attrs: mustprogress nounwind uwtable
define internal void @_ZN10duckdb_lz4L16LZ4_prepareTableEPNS_21LZ4_stream_t_internalEiNS_11tableType_tE(ptr noundef %0, i32 noundef %1, i32 noundef %2) #0 {
  %4 = alloca ptr, align 8
  %5 = alloca i32, align 4
  %6 = alloca i32, align 4
  store ptr %0, ptr %4, align 8, !tbaa !11
  store i32 %1, ptr %5, align 4, !tbaa !3
  store i32 %2, ptr %6, align 4, !tbaa !13
  %7 = load ptr, ptr %4, align 8, !tbaa !11
  %8 = getelementptr inbounds nuw %"struct.duckdb_lz4::LZ4_stream_t_internal", ptr %7, i32 0, i32 4
  %9 = load i32, ptr %8, align 4, !tbaa !28
  %10 = icmp ne i32 %9, 0
  br i1 %10, label %11, label %51

11:                                               ; preds = %3
  %12 = load ptr, ptr %4, align 8, !tbaa !11
  %13 = getelementptr inbounds nuw %"struct.duckdb_lz4::LZ4_stream_t_internal", ptr %12, i32 0, i32 4
  %14 = load i32, ptr %13, align 4, !tbaa !28
  %15 = load i32, ptr %6, align 4, !tbaa !13
  %16 = icmp ne i32 %14, %15
  br i1 %16, label %41, label %17

17:                                               ; preds = %11
  %18 = load i32, ptr %6, align 4, !tbaa !13
  %19 = icmp eq i32 %18, 3
  br i1 %19, label %20, label %27

20:                                               ; preds = %17
  %21 = load ptr, ptr %4, align 8, !tbaa !11
  %22 = getelementptr inbounds nuw %"struct.duckdb_lz4::LZ4_stream_t_internal", ptr %21, i32 0, i32 3
  %23 = load i32, ptr %22, align 8, !tbaa !26
  %24 = load i32, ptr %5, align 4, !tbaa !3
  %25 = add i32 %23, %24
  %26 = icmp uge i32 %25, 65535
  br i1 %26, label %41, label %27

27:                                               ; preds = %20, %17
  %28 = load i32, ptr %6, align 4, !tbaa !13
  %29 = icmp eq i32 %28, 2
  br i1 %29, label %30, label %35

30:                                               ; preds = %27
  %31 = load ptr, ptr %4, align 8, !tbaa !11
  %32 = getelementptr inbounds nuw %"struct.duckdb_lz4::LZ4_stream_t_internal", ptr %31, i32 0, i32 3
  %33 = load i32, ptr %32, align 8, !tbaa !26
  %34 = icmp ugt i32 %33, 1073741824
  br i1 %34, label %41, label %35

35:                                               ; preds = %30, %27
  %36 = load i32, ptr %6, align 4, !tbaa !13
  %37 = icmp eq i32 %36, 1
  br i1 %37, label %41, label %38

38:                                               ; preds = %35
  %39 = load i32, ptr %5, align 4, !tbaa !3
  %40 = icmp sge i32 %39, 4096
  br i1 %40, label %41, label %49

41:                                               ; preds = %38, %35, %30, %20, %11
  %42 = load ptr, ptr %4, align 8, !tbaa !11
  %43 = getelementptr inbounds nuw %"struct.duckdb_lz4::LZ4_stream_t_internal", ptr %42, i32 0, i32 0
  %44 = getelementptr inbounds [4096 x i32], ptr %43, i64 0, i64 0
  call void @llvm.memset.p0.i64(ptr align 8 %44, i8 0, i64 16384, i1 false)
  %45 = load ptr, ptr %4, align 8, !tbaa !11
  %46 = getelementptr inbounds nuw %"struct.duckdb_lz4::LZ4_stream_t_internal", ptr %45, i32 0, i32 3
  store i32 0, ptr %46, align 8, !tbaa !26
  %47 = load ptr, ptr %4, align 8, !tbaa !11
  %48 = getelementptr inbounds nuw %"struct.duckdb_lz4::LZ4_stream_t_internal", ptr %47, i32 0, i32 4
  store i32 0, ptr %48, align 4, !tbaa !28
  br label %50

49:                                               ; preds = %38
  br label %50

50:                                               ; preds = %49, %41
  br label %51

51:                                               ; preds = %50, %3
  %52 = load ptr, ptr %4, align 8, !tbaa !11
  %53 = getelementptr inbounds nuw %"struct.duckdb_lz4::LZ4_stream_t_internal", ptr %52, i32 0, i32 3
  %54 = load i32, ptr %53, align 8, !tbaa !26
  %55 = icmp ne i32 %54, 0
  br i1 %55, label %56, label %64

56:                                               ; preds = %51
  %57 = load i32, ptr %6, align 4, !tbaa !13
  %58 = icmp eq i32 %57, 2
  br i1 %58, label %59, label %64

59:                                               ; preds = %56
  %60 = load ptr, ptr %4, align 8, !tbaa !11
  %61 = getelementptr inbounds nuw %"struct.duckdb_lz4::LZ4_stream_t_internal", ptr %60, i32 0, i32 3
  %62 = load i32, ptr %61, align 8, !tbaa !26
  %63 = add i32 %62, 65536
  store i32 %63, ptr %61, align 8, !tbaa !26
  br label %64

64:                                               ; preds = %59, %56, %51
  %65 = load ptr, ptr %4, align 8, !tbaa !11
  %66 = getelementptr inbounds nuw %"struct.duckdb_lz4::LZ4_stream_t_internal", ptr %65, i32 0, i32 2
  store ptr null, ptr %66, align 8, !tbaa !29
  %67 = load ptr, ptr %4, align 8, !tbaa !11
  %68 = getelementptr inbounds nuw %"struct.duckdb_lz4::LZ4_stream_t_internal", ptr %67, i32 0, i32 1
  store ptr null, ptr %68, align 8, !tbaa !30
  %69 = load ptr, ptr %4, align 8, !tbaa !11
  %70 = getelementptr inbounds nuw %"struct.duckdb_lz4::LZ4_stream_t_internal", ptr %69, i32 0, i32 5
  store i32 0, ptr %70, align 8, !tbaa !31
  ret void
}

; Function Attrs: mustprogress nounwind uwtable
define noundef i32 @_ZN10duckdb_lz417LZ4_compressBoundEi(i32 noundef %0) #0 {
  %2 = alloca i32, align 4
  store i32 %0, ptr %2, align 4, !tbaa !3
  %3 = load i32, ptr %2, align 4, !tbaa !3
  %4 = icmp ugt i32 %3, 2113929216
  br i1 %4, label %5, label %6

5:                                                ; preds = %1
  br label %12

6:                                                ; preds = %1
  %7 = load i32, ptr %2, align 4, !tbaa !3
  %8 = load i32, ptr %2, align 4, !tbaa !3
  %9 = sdiv i32 %8, 255
  %10 = add nsw i32 %7, %9
  %11 = add nsw i32 %10, 16
  br label %12

12:                                               ; preds = %6, %5
  %13 = phi i32 [ 0, %5 ], [ %11, %6 ]
  ret i32 %13
}

; Function Attrs: mustprogress uwtable
define noundef i32 @_ZN10duckdb_lz436LZ4_compress_fast_extState_fastResetEPvPKcPciii(ptr noundef %0, ptr noundef %1, ptr noundef %2, i32 noundef %3, i32 noundef %4, i32 noundef %5) #1 {
  %7 = alloca i32, align 4
  %8 = alloca ptr, align 8
  %9 = alloca ptr, align 8
  %10 = alloca ptr, align 8
  %11 = alloca i32, align 4
  %12 = alloca i32, align 4
  %13 = alloca i32, align 4
  %14 = alloca ptr, align 8
  %15 = alloca i32, align 4
  %16 = alloca i32, align 4
  %17 = alloca i32, align 4
  %18 = alloca i32, align 4
  %19 = alloca i32, align 4
  store ptr %0, ptr %8, align 8, !tbaa !7
  store ptr %1, ptr %9, align 8, !tbaa !9
  store ptr %2, ptr %10, align 8, !tbaa !9
  store i32 %3, ptr %11, align 4, !tbaa !3
  store i32 %4, ptr %12, align 4, !tbaa !3
  store i32 %5, ptr %13, align 4, !tbaa !3
  call void @llvm.lifetime.start.p0(i64 8, ptr %14) #9
  %20 = load ptr, ptr %8, align 8, !tbaa !7
  store ptr %20, ptr %14, align 8, !tbaa !11
  %21 = load i32, ptr %13, align 4, !tbaa !3
  %22 = icmp slt i32 %21, 1
  br i1 %22, label %23, label %24

23:                                               ; preds = %6
  store i32 1, ptr %13, align 4, !tbaa !3
  br label %24

24:                                               ; preds = %23, %6
  %25 = load i32, ptr %13, align 4, !tbaa !3
  %26 = icmp sgt i32 %25, 65537
  br i1 %26, label %27, label %28

27:                                               ; preds = %24
  store i32 65537, ptr %13, align 4, !tbaa !3
  br label %28

28:                                               ; preds = %27, %24
  %29 = load i32, ptr %12, align 4, !tbaa !3
  %30 = load i32, ptr %11, align 4, !tbaa !3
  %31 = call noundef i32 @_ZN10duckdb_lz417LZ4_compressBoundEi(i32 noundef %30)
  %32 = icmp sge i32 %29, %31
  br i1 %32, label %33, label %67

33:                                               ; preds = %28
  %34 = load i32, ptr %11, align 4, !tbaa !3
  %35 = icmp slt i32 %34, 65547
  br i1 %35, label %36, label %58

36:                                               ; preds = %33
  call void @llvm.lifetime.start.p0(i64 4, ptr %15) #9
  store i32 3, ptr %15, align 4, !tbaa !13
  %37 = load ptr, ptr %14, align 8, !tbaa !11
  %38 = load i32, ptr %11, align 4, !tbaa !3
  call void @_ZN10duckdb_lz4L16LZ4_prepareTableEPNS_21LZ4_stream_t_internalEiNS_11tableType_tE(ptr noundef %37, i32 noundef %38, i32 noundef 3)
  %39 = load ptr, ptr %14, align 8, !tbaa !11
  %40 = getelementptr inbounds nuw %"struct.duckdb_lz4::LZ4_stream_t_internal", ptr %39, i32 0, i32 3
  %41 = load i32, ptr %40, align 8, !tbaa !26
  %42 = icmp ne i32 %41, 0
  br i1 %42, label %43, label %50

43:                                               ; preds = %36
  %44 = load ptr, ptr %14, align 8, !tbaa !11
  %45 = load ptr, ptr %9, align 8, !tbaa !9
  %46 = load ptr, ptr %10, align 8, !tbaa !9
  %47 = load i32, ptr %11, align 4, !tbaa !3
  %48 = load i32, ptr %13, align 4, !tbaa !3
  %49 = call noundef i32 @_ZN10duckdb_lz4L20LZ4_compress_genericEPNS_21LZ4_stream_t_internalEPKcPciPiiNS_23limitedOutput_directiveENS_11tableType_tENS_14dict_directiveENS_19dictIssue_directiveEi(ptr noundef %44, ptr noundef %45, ptr noundef %46, i32 noundef %47, ptr noundef null, i32 noundef 0, i32 noundef 0, i32 noundef 3, i32 noundef 0, i32 noundef 1, i32 noundef %48)
  store i32 %49, ptr %7, align 4
  store i32 1, ptr %16, align 4
  br label %57

50:                                               ; preds = %36
  %51 = load ptr, ptr %14, align 8, !tbaa !11
  %52 = load ptr, ptr %9, align 8, !tbaa !9
  %53 = load ptr, ptr %10, align 8, !tbaa !9
  %54 = load i32, ptr %11, align 4, !tbaa !3
  %55 = load i32, ptr %13, align 4, !tbaa !3
  %56 = call noundef i32 @_ZN10duckdb_lz4L20LZ4_compress_genericEPNS_21LZ4_stream_t_internalEPKcPciPiiNS_23limitedOutput_directiveENS_11tableType_tENS_14dict_directiveENS_19dictIssue_directiveEi(ptr noundef %51, ptr noundef %52, ptr noundef %53, i32 noundef %54, ptr noundef null, i32 noundef 0, i32 noundef 0, i32 noundef 3, i32 noundef 0, i32 noundef 0, i32 noundef %55)
  store i32 %56, ptr %7, align 4
  store i32 1, ptr %16, align 4
  br label %57

57:                                               ; preds = %50, %43
  call void @llvm.lifetime.end.p0(i64 4, ptr %15) #9
  br label %104

58:                                               ; preds = %33
  call void @llvm.lifetime.start.p0(i64 4, ptr %17) #9
  store i32 2, ptr %17, align 4, !tbaa !13
  %59 = load ptr, ptr %14, align 8, !tbaa !11
  %60 = load i32, ptr %11, align 4, !tbaa !3
  call void @_ZN10duckdb_lz4L16LZ4_prepareTableEPNS_21LZ4_stream_t_internalEiNS_11tableType_tE(ptr noundef %59, i32 noundef %60, i32 noundef 2)
  %61 = load ptr, ptr %14, align 8, !tbaa !11
  %62 = load ptr, ptr %9, align 8, !tbaa !9
  %63 = load ptr, ptr %10, align 8, !tbaa !9
  %64 = load i32, ptr %11, align 4, !tbaa !3
  %65 = load i32, ptr %13, align 4, !tbaa !3
  %66 = call noundef i32 @_ZN10duckdb_lz4L20LZ4_compress_genericEPNS_21LZ4_stream_t_internalEPKcPciPiiNS_23limitedOutput_directiveENS_11tableType_tENS_14dict_directiveENS_19dictIssue_directiveEi(ptr noundef %61, ptr noundef %62, ptr noundef %63, i32 noundef %64, ptr noundef null, i32 noundef 0, i32 noundef 0, i32 noundef 2, i32 noundef 0, i32 noundef 0, i32 noundef %65)
  store i32 %66, ptr %7, align 4
  store i32 1, ptr %16, align 4
  call void @llvm.lifetime.end.p0(i64 4, ptr %17) #9
  br label %104

67:                                               ; preds = %28
  %68 = load i32, ptr %11, align 4, !tbaa !3
  %69 = icmp slt i32 %68, 65547
  br i1 %69, label %70, label %94

70:                                               ; preds = %67
  call void @llvm.lifetime.start.p0(i64 4, ptr %18) #9
  store i32 3, ptr %18, align 4, !tbaa !13
  %71 = load ptr, ptr %14, align 8, !tbaa !11
  %72 = load i32, ptr %11, align 4, !tbaa !3
  call void @_ZN10duckdb_lz4L16LZ4_prepareTableEPNS_21LZ4_stream_t_internalEiNS_11tableType_tE(ptr noundef %71, i32 noundef %72, i32 noundef 3)
  %73 = load ptr, ptr %14, align 8, !tbaa !11
  %74 = getelementptr inbounds nuw %"struct.duckdb_lz4::LZ4_stream_t_internal", ptr %73, i32 0, i32 3
  %75 = load i32, ptr %74, align 8, !tbaa !26
  %76 = icmp ne i32 %75, 0
  br i1 %76, label %77, label %85

77:                                               ; preds = %70
  %78 = load ptr, ptr %14, align 8, !tbaa !11
  %79 = load ptr, ptr %9, align 8, !tbaa !9
  %80 = load ptr, ptr %10, align 8, !tbaa !9
  %81 = load i32, ptr %11, align 4, !tbaa !3
  %82 = load i32, ptr %12, align 4, !tbaa !3
  %83 = load i32, ptr %13, align 4, !tbaa !3
  %84 = call noundef i32 @_ZN10duckdb_lz4L20LZ4_compress_genericEPNS_21LZ4_stream_t_internalEPKcPciPiiNS_23limitedOutput_directiveENS_11tableType_tENS_14dict_directiveENS_19dictIssue_directiveEi(ptr noundef %78, ptr noundef %79, ptr noundef %80, i32 noundef %81, ptr noundef null, i32 noundef %82, i32 noundef 1, i32 noundef 3, i32 noundef 0, i32 noundef 1, i32 noundef %83)
  store i32 %84, ptr %7, align 4
  store i32 1, ptr %16, align 4
  br label %93

85:                                               ; preds = %70
  %86 = load ptr, ptr %14, align 8, !tbaa !11
  %87 = load ptr, ptr %9, align 8, !tbaa !9
  %88 = load ptr, ptr %10, align 8, !tbaa !9
  %89 = load i32, ptr %11, align 4, !tbaa !3
  %90 = load i32, ptr %12, align 4, !tbaa !3
  %91 = load i32, ptr %13, align 4, !tbaa !3
  %92 = call noundef i32 @_ZN10duckdb_lz4L20LZ4_compress_genericEPNS_21LZ4_stream_t_internalEPKcPciPiiNS_23limitedOutput_directiveENS_11tableType_tENS_14dict_directiveENS_19dictIssue_directiveEi(ptr noundef %86, ptr noundef %87, ptr noundef %88, i32 noundef %89, ptr noundef null, i32 noundef %90, i32 noundef 1, i32 noundef 3, i32 noundef 0, i32 noundef 0, i32 noundef %91)
  store i32 %92, ptr %7, align 4
  store i32 1, ptr %16, align 4
  br label %93

93:                                               ; preds = %85, %77
  call void @llvm.lifetime.end.p0(i64 4, ptr %18) #9
  br label %104

94:                                               ; preds = %67
  call void @llvm.lifetime.start.p0(i64 4, ptr %19) #9
  store i32 2, ptr %19, align 4, !tbaa !13
  %95 = load ptr, ptr %14, align 8, !tbaa !11
  %96 = load i32, ptr %11, align 4, !tbaa !3
  call void @_ZN10duckdb_lz4L16LZ4_prepareTableEPNS_21LZ4_stream_t_internalEiNS_11tableType_tE(ptr noundef %95, i32 noundef %96, i32 noundef 2)
  %97 = load ptr, ptr %14, align 8, !tbaa !11
  %98 = load ptr, ptr %9, align 8, !tbaa !9
  %99 = load ptr, ptr %10, align 8, !tbaa !9
  %100 = load i32, ptr %11, align 4, !tbaa !3
  %101 = load i32, ptr %12, align 4, !tbaa !3
  %102 = load i32, ptr %13, align 4, !tbaa !3
  %103 = call noundef i32 @_ZN10duckdb_lz4L20LZ4_compress_genericEPNS_21LZ4_stream_t_internalEPKcPciPiiNS_23limitedOutput_directiveENS_11tableType_tENS_14dict_directiveENS_19dictIssue_directiveEi(ptr noundef %97, ptr noundef %98, ptr noundef %99, i32 noundef %100, ptr noundef null, i32 noundef %101, i32 noundef 1, i32 noundef 2, i32 noundef 0, i32 noundef 0, i32 noundef %102)
  store i32 %103, ptr %7, align 4
  store i32 1, ptr %16, align 4
  call void @llvm.lifetime.end.p0(i64 4, ptr %19) #9
  br label %104

104:                                              ; preds = %94, %93, %58, %57
  call void @llvm.lifetime.end.p0(i64 8, ptr %14) #9
  %105 = load i32, ptr %7, align 4
  ret i32 %105
}