; Function Attrs: mustprogress nofree norecurse nosync nounwind memory(readwrite, inaccessiblemem: none) uwtable
define noundef i32 @_ZN10duckdb_lz436LZ4_compress_fast_extState_fastResetEPvPKcPciii(ptr noundef captures(none) initializes((16384, 16400), (16408, 16412)) %0, ptr noundef %1, ptr noundef %2, i32 noundef %3, i32 noundef %4, i32 noundef %5) local_unnamed_addr #1 {
  %spec.store.select = tail call i32 @llvm.smax.i32(i32 %5, i32 1)
  %spec.store.select1 = tail call i32 @llvm.umin.i32(i32 %spec.store.select, i32 65537)
  %7 = icmp ugt i32 %3, 2113929216
  br i1 %7, label %_ZN10duckdb_lz417LZ4_compressBoundEi.exit, label %8

8:                                                ; preds = %6
  %9 = udiv i32 %3, 255
  %10 = add nuw nsw i32 %3, 16
  %11 = add nuw nsw i32 %10, %9
  br label %_ZN10duckdb_lz417LZ4_compressBoundEi.exit

_ZN10duckdb_lz417LZ4_compressBoundEi.exit:        ; preds = %6, %8
  %12 = phi i32 [ %11, %8 ], [ 0, %6 ]
  %.not = icmp slt i32 %4, %12
  %13 = icmp slt i32 %3, 65547
  %14 = getelementptr inbounds nuw i8, ptr %0, i64 16404
  %15 = load i32, ptr %14, align 4, !tbaa !16
  br i1 %.not, label %38, label %16

16:                                               ; preds = %_ZN10duckdb_lz417LZ4_compressBoundEi.exit
  br i1 %13, label %17, label %30

17:                                               ; preds = %16
  switch i32 %15, label %_ZN10duckdb_lz4L16LZ4_prepareTableEPNS_21LZ4_stream_t_internalEiNS_11tableType_tE.exit.thread [
    i32 0, label %._ZN10duckdb_lz4L16LZ4_prepareTableEPNS_21LZ4_stream_t_internalEiNS_11tableType_tE.exit_crit_edge
    i32 3, label %18
  ]

._ZN10duckdb_lz4L16LZ4_prepareTableEPNS_21LZ4_stream_t_internalEiNS_11tableType_tE.exit_crit_edge: ; preds = %17
  %.phi.trans.insert = getelementptr inbounds nuw i8, ptr %0, i64 16400
  %.pre = load i32, ptr %.phi.trans.insert, align 8, !tbaa !8
  br label %_ZN10duckdb_lz4L16LZ4_prepareTableEPNS_21LZ4_stream_t_internalEiNS_11tableType_tE.exit

18:                                               ; preds = %17
  %19 = getelementptr inbounds nuw i8, ptr %0, i64 16400
  %20 = load i32, ptr %19, align 8, !tbaa !8
  %21 = add i32 %20, %3
  %22 = icmp ugt i32 %21, 65534
  %.old.i = icmp sgt i32 %3, 4095
  %or.cond28.i = or i1 %.old.i, %22
  br i1 %or.cond28.i, label %_ZN10duckdb_lz4L16LZ4_prepareTableEPNS_21LZ4_stream_t_internalEiNS_11tableType_tE.exit.thread, label %_ZN10duckdb_lz4L16LZ4_prepareTableEPNS_21LZ4_stream_t_internalEiNS_11tableType_tE.exit

_ZN10duckdb_lz4L16LZ4_prepareTableEPNS_21LZ4_stream_t_internalEiNS_11tableType_tE.exit.thread: ; preds = %18, %17
  tail call void @llvm.memset.p0.i64(ptr noundef nonnull align 8 dereferenceable(16412) %0, i8 0, i64 16412, i1 false)
  br label %28

_ZN10duckdb_lz4L16LZ4_prepareTableEPNS_21LZ4_stream_t_internalEiNS_11tableType_tE.exit: ; preds = %._ZN10duckdb_lz4L16LZ4_prepareTableEPNS_21LZ4_stream_t_internalEiNS_11tableType_tE.exit_crit_edge, %18
  %23 = phi i32 [ %.pre, %._ZN10duckdb_lz4L16LZ4_prepareTableEPNS_21LZ4_stream_t_internalEiNS_11tableType_tE.exit_crit_edge ], [ %20, %18 ]
  %24 = getelementptr inbounds nuw i8, ptr %0, i64 16384
  %25 = getelementptr inbounds nuw i8, ptr %0, i64 16408
  store i32 0, ptr %25, align 8, !tbaa !15
  tail call void @llvm.memset.p0.i64(ptr noundef nonnull align 8 dereferenceable(16) %24, i8 0, i64 16, i1 false)
  %.not56 = icmp eq i32 %23, 0
  br i1 %.not56, label %28, label %26

26:                                               ; preds = %_ZN10duckdb_lz4L16LZ4_prepareTableEPNS_21LZ4_stream_t_internalEiNS_11tableType_tE.exit
  %27 = tail call fastcc noundef i32 @_ZN10duckdb_lz4L20LZ4_compress_genericEPNS_21LZ4_stream_t_internalEPKcPciPiiNS_23limitedOutput_directiveENS_11tableType_tENS_14dict_directiveENS_19dictIssue_directiveEi(ptr noundef nonnull %0, ptr noundef %1, ptr noundef %2, i32 noundef %3, ptr noundef null, i32 noundef 0, i32 noundef 0, i32 noundef 3, i32 noundef 0, i32 noundef 1, i32 noundef %spec.store.select1)
  br label %60

28:                                               ; preds = %_ZN10duckdb_lz4L16LZ4_prepareTableEPNS_21LZ4_stream_t_internalEiNS_11tableType_tE.exit.thread, %_ZN10duckdb_lz4L16LZ4_prepareTableEPNS_21LZ4_stream_t_internalEiNS_11tableType_tE.exit
  %29 = tail call fastcc noundef i32 @_ZN10duckdb_lz4L20LZ4_compress_genericEPNS_21LZ4_stream_t_internalEPKcPciPiiNS_23limitedOutput_directiveENS_11tableType_tENS_14dict_directiveENS_19dictIssue_directiveEi(ptr noundef nonnull %0, ptr noundef %1, ptr noundef %2, i32 noundef %3, ptr noundef null, i32 noundef 0, i32 noundef 0, i32 noundef 3, i32 noundef 0, i32 noundef 0, i32 noundef %spec.store.select1)
  br label %60

30:                                               ; preds = %16
  %cond = icmp eq i32 %15, 0
  br i1 %cond, label %32, label %.thread29.i59

.thread29.i59:                                    ; preds = %30
  tail call void @llvm.memset.p0.i64(ptr noundef nonnull align 8 dereferenceable(16384) %0, i8 0, i64 16384, i1 false)
  %31 = getelementptr inbounds nuw i8, ptr %0, i64 16400
  store i32 0, ptr %31, align 8, !tbaa !8
  store i32 0, ptr %14, align 4, !tbaa !16
  br label %_ZN10duckdb_lz4L16LZ4_prepareTableEPNS_21LZ4_stream_t_internalEiNS_11tableType_tE.exit63

32:                                               ; preds = %30
  %.phi.trans.insert.i61 = getelementptr inbounds nuw i8, ptr %0, i64 16400
  %.pre.i62 = load i32, ptr %.phi.trans.insert.i61, align 8, !tbaa !8
  %.not81 = icmp eq i32 %.pre.i62, 0
  br i1 %.not81, label %_ZN10duckdb_lz4L16LZ4_prepareTableEPNS_21LZ4_stream_t_internalEiNS_11tableType_tE.exit63, label %33

33:                                               ; preds = %32
  %34 = add i32 %.pre.i62, 65536
  store i32 %34, ptr %.phi.trans.insert.i61, align 8, !tbaa !8
  br label %_ZN10duckdb_lz4L16LZ4_prepareTableEPNS_21LZ4_stream_t_internalEiNS_11tableType_tE.exit63

_ZN10duckdb_lz4L16LZ4_prepareTableEPNS_21LZ4_stream_t_internalEiNS_11tableType_tE.exit63: ; preds = %.thread29.i59, %32, %33
  %35 = getelementptr inbounds nuw i8, ptr %0, i64 16384
  %36 = getelementptr inbounds nuw i8, ptr %0, i64 16408
  store i32 0, ptr %36, align 8, !tbaa !15
  tail call void @llvm.memset.p0.i64(ptr noundef nonnull align 8 dereferenceable(16) %35, i8 0, i64 16, i1 false)
  %37 = tail call fastcc noundef i32 @_ZN10duckdb_lz4L20LZ4_compress_genericEPNS_21LZ4_stream_t_internalEPKcPciPiiNS_23limitedOutput_directiveENS_11tableType_tENS_14dict_directiveENS_19dictIssue_directiveEi(ptr noundef nonnull %0, ptr noundef %1, ptr noundef %2, i32 noundef %3, ptr noundef null, i32 noundef 0, i32 noundef 0, i32 noundef 2, i32 noundef 0, i32 noundef 0, i32 noundef %spec.store.select1)
  br label %60

38:                                               ; preds = %_ZN10duckdb_lz417LZ4_compressBoundEi.exit
  br i1 %13, label %39, label %52

39:                                               ; preds = %38
  switch i32 %15, label %_ZN10duckdb_lz4L16LZ4_prepareTableEPNS_21LZ4_stream_t_internalEiNS_11tableType_tE.exit72.thread [
    i32 0, label %._ZN10duckdb_lz4L16LZ4_prepareTableEPNS_21LZ4_stream_t_internalEiNS_11tableType_tE.exit72_crit_edge
    i32 3, label %40
  ]

._ZN10duckdb_lz4L16LZ4_prepareTableEPNS_21LZ4_stream_t_internalEiNS_11tableType_tE.exit72_crit_edge: ; preds = %39
  %.phi.trans.insert84 = getelementptr inbounds nuw i8, ptr %0, i64 16400
  %.pre85 = load i32, ptr %.phi.trans.insert84, align 8, !tbaa !8
  br label %_ZN10duckdb_lz4L16LZ4_prepareTableEPNS_21LZ4_stream_t_internalEiNS_11tableType_tE.exit72

40:                                               ; preds = %39
  %41 = getelementptr inbounds nuw i8, ptr %0, i64 16400
  %42 = load i32, ptr %41, align 8, !tbaa !8
  %43 = add i32 %42, %3
  %44 = icmp ugt i32 %43, 65534
  %.old.i67 = icmp sgt i32 %3, 4095
  %or.cond28.i68 = or i1 %.old.i67, %44
  br i1 %or.cond28.i68, label %_ZN10duckdb_lz4L16LZ4_prepareTableEPNS_21LZ4_stream_t_internalEiNS_11tableType_tE.exit72.thread, label %_ZN10duckdb_lz4L16LZ4_prepareTableEPNS_21LZ4_stream_t_internalEiNS_11tableType_tE.exit72

_ZN10duckdb_lz4L16LZ4_prepareTableEPNS_21LZ4_stream_t_internalEiNS_11tableType_tE.exit72.thread: ; preds = %40, %39
  tail call void @llvm.memset.p0.i64(ptr noundef nonnull align 8 dereferenceable(16412) %0, i8 0, i64 16412, i1 false)
  br label %50

_ZN10duckdb_lz4L16LZ4_prepareTableEPNS_21LZ4_stream_t_internalEiNS_11tableType_tE.exit72: ; preds = %._ZN10duckdb_lz4L16LZ4_prepareTableEPNS_21LZ4_stream_t_internalEiNS_11tableType_tE.exit72_crit_edge, %40
  %45 = phi i32 [ %.pre85, %._ZN10duckdb_lz4L16LZ4_prepareTableEPNS_21LZ4_stream_t_internalEiNS_11tableType_tE.exit72_crit_edge ], [ %42, %40 ]
  %46 = getelementptr inbounds nuw i8, ptr %0, i64 16384
  %47 = getelementptr inbounds nuw i8, ptr %0, i64 16408
  store i32 0, ptr %47, align 8, !tbaa !15
  tail call void @llvm.memset.p0.i64(ptr noundef nonnull align 8 dereferenceable(16) %46, i8 0, i64 16, i1 false)
  %.not55 = icmp eq i32 %45, 0
  br i1 %.not55, label %50, label %48

48:                                               ; preds = %_ZN10duckdb_lz4L16LZ4_prepareTableEPNS_21LZ4_stream_t_internalEiNS_11tableType_tE.exit72
  %49 = tail call fastcc noundef i32 @_ZN10duckdb_lz4L20LZ4_compress_genericEPNS_21LZ4_stream_t_internalEPKcPciPiiNS_23limitedOutput_directiveENS_11tableType_tENS_14dict_directiveENS_19dictIssue_directiveEi(ptr noundef nonnull %0, ptr noundef %1, ptr noundef %2, i32 noundef %3, ptr noundef null, i32 noundef %4, i32 noundef 1, i32 noundef 3, i32 noundef 0, i32 noundef 1, i32 noundef %spec.store.select1)
  br label %60

50:                                               ; preds = %_ZN10duckdb_lz4L16LZ4_prepareTableEPNS_21LZ4_stream_t_internalEiNS_11tableType_tE.exit72.thread, %_ZN10duckdb_lz4L16LZ4_prepareTableEPNS_21LZ4_stream_t_internalEiNS_11tableType_tE.exit72
  %51 = tail call fastcc noundef i32 @_ZN10duckdb_lz4L20LZ4_compress_genericEPNS_21LZ4_stream_t_internalEPKcPciPiiNS_23limitedOutput_directiveENS_11tableType_tENS_14dict_directiveENS_19dictIssue_directiveEi(ptr noundef nonnull %0, ptr noundef %1, ptr noundef %2, i32 noundef %3, ptr noundef null, i32 noundef %4, i32 noundef 1, i32 noundef 3, i32 noundef 0, i32 noundef 0, i32 noundef %spec.store.select1)
  br label %60

52:                                               ; preds = %38
  %cond83 = icmp eq i32 %15, 0
  br i1 %cond83, label %54, label %.thread29.i75

.thread29.i75:                                    ; preds = %52
  tail call void @llvm.memset.p0.i64(ptr noundef nonnull align 8 dereferenceable(16384) %0, i8 0, i64 16384, i1 false)
  %53 = getelementptr inbounds nuw i8, ptr %0, i64 16400
  store i32 0, ptr %53, align 8, !tbaa !8
  store i32 0, ptr %14, align 4, !tbaa !16
  br label %_ZN10duckdb_lz4L16LZ4_prepareTableEPNS_21LZ4_stream_t_internalEiNS_11tableType_tE.exit80

54:                                               ; preds = %52
  %.phi.trans.insert.i78 = getelementptr inbounds nuw i8, ptr %0, i64 16400
  %.pre.i79 = load i32, ptr %.phi.trans.insert.i78, align 8, !tbaa !8
  %.not82 = icmp eq i32 %.pre.i79, 0
  br i1 %.not82, label %_ZN10duckdb_lz4L16LZ4_prepareTableEPNS_21LZ4_stream_t_internalEiNS_11tableType_tE.exit80, label %55

55:                                               ; preds = %54
  %56 = add i32 %.pre.i79, 65536
  store i32 %56, ptr %.phi.trans.insert.i78, align 8, !tbaa !8
  br label %_ZN10duckdb_lz4L16LZ4_prepareTableEPNS_21LZ4_stream_t_internalEiNS_11tableType_tE.exit80

_ZN10duckdb_lz4L16LZ4_prepareTableEPNS_21LZ4_stream_t_internalEiNS_11tableType_tE.exit80: ; preds = %.thread29.i75, %54, %55
  %57 = getelementptr inbounds nuw i8, ptr %0, i64 16384
  %58 = getelementptr inbounds nuw i8, ptr %0, i64 16408
  store i32 0, ptr %58, align 8, !tbaa !15
  tail call void @llvm.memset.p0.i64(ptr noundef nonnull align 8 dereferenceable(16) %57, i8 0, i64 16, i1 false)
  %59 = tail call fastcc noundef i32 @_ZN10duckdb_lz4L20LZ4_compress_genericEPNS_21LZ4_stream_t_internalEPKcPciPiiNS_23limitedOutput_directiveENS_11tableType_tENS_14dict_directiveENS_19dictIssue_directiveEi(ptr noundef nonnull %0, ptr noundef %1, ptr noundef %2, i32 noundef %3, ptr noundef null, i32 noundef %4, i32 noundef 1, i32 noundef 2, i32 noundef 0, i32 noundef 0, i32 noundef %spec.store.select1)
  br label %60

60:                                               ; preds = %48, %50, %26, %28, %_ZN10duckdb_lz4L16LZ4_prepareTableEPNS_21LZ4_stream_t_internalEiNS_11tableType_tE.exit80, %_ZN10duckdb_lz4L16LZ4_prepareTableEPNS_21LZ4_stream_t_internalEiNS_11tableType_tE.exit63
  %.1 = phi i32 [ %37, %_ZN10duckdb_lz4L16LZ4_prepareTableEPNS_21LZ4_stream_t_internalEiNS_11tableType_tE.exit63 ], [ %59, %_ZN10duckdb_lz4L16LZ4_prepareTableEPNS_21LZ4_stream_t_internalEiNS_11tableType_tE.exit80 ], [ %27, %26 ], [ %29, %28 ], [ %49, %48 ], [ %51, %50 ]
  ret i32 %.1
}